; Function Attrs: nounwind uwtable
define dso_local void @addReplyBool(ptr noundef %0, i32 noundef %1) local_unnamed_addr #0 {
  %3 = getelementptr inbounds nuw i8, ptr %0, i64 28
  %4 = load i32, ptr %3, align 4, !tbaa !74
  %5 = icmp eq i32 %4, 2
  %.not4 = icmp eq i32 %1, 0
  br i1 %5, label %6, label %10

6:                                                ; preds = %2
  %7 = load ptr, ptr getelementptr inbounds nuw (i8, ptr @shared, i64 32), align 8
  %8 = load ptr, ptr getelementptr inbounds nuw (i8, ptr @shared, i64 24), align 8
  %9 = select i1 %.not4, ptr %8, ptr %7
  tail call void @addReply(ptr noundef nonnull %0, ptr noundef %9)
  br label %12

10:                                               ; preds = %2
  %11 = select i1 %.not4, ptr @.str.32, ptr @.str.31
  tail call void @addReplyProto(ptr noundef nonnull %0, ptr noundef nonnull %11, i64 noundef 4)
  br label %12

12:                                               ; preds = %10, %6
  ret void
}